; Function Attrs: mustprogress nounwind uwtable
define dso_local void @_ZN5clang12LookupResult11deletePathsEPNS_12CXXBasePathsE(ptr noundef %0) local_unnamed_addr #0 align 2 {
  %2 = icmp eq ptr %0, null
  br i1 %2, label %4, label %3

3:                                                ; preds = %1
  tail call void @_ZN5clang12CXXBasePathsD2Ev(ptr noundef nonnull align 8 dereferenceable(371) %0) #24
  tail call void @_ZdlPvm(ptr noundef nonnull %0, i64 noundef 376) #26
  br label %4

4:                                                ; preds = %3, %1
  ret void
}